target datalayout = "e-m:e-p270:32:32-p271:32:32-p272:64:64-i64:64-i128:128-f80:128-n8:16:32:64-S128"
target triple = "x86_64-pc-linux-gnu"

%struct.MXFMetadataSet = type { [16 x i8], i64 }
%struct.MXFEssenceGroup = type { %struct.MXFMetadataSet, ptr, i32, i64 }

; Function Attrs: nounwind uwtable
define internal i32 @mxf_read_essence_group(ptr noundef %0, ptr noundef %1, i32 noundef %2, i32 noundef %3, ptr noundef %4, i64 noundef %5) #0 {
  %7 = alloca i32, align 4
  %8 = alloca ptr, align 8
  %9 = alloca ptr, align 8
  %10 = alloca i32, align 4
  %11 = alloca i32, align 4
  %12 = alloca ptr, align 8
  %13 = alloca i64, align 8
  %14 = alloca ptr, align 8
  %15 = alloca i32, align 4
  store ptr %0, ptr %8, align 8, !tbaa !90
  store ptr %1, ptr %9, align 8, !tbaa !138
  store i32 %2, ptr %10, align 4, !tbaa !47
  store i32 %3, ptr %11, align 4, !tbaa !47
  store ptr %4, ptr %12, align 8, !tbaa !13
  store i64 %5, ptr %13, align 8, !tbaa !37
  call void @llvm.lifetime.start.p0(i64 8, ptr %14) #13
  %16 = load ptr, ptr %8, align 8, !tbaa !90
  store ptr %16, ptr %14, align 8, !tbaa !90
  %17 = load i32, ptr %10, align 4, !tbaa !47
  switch i32 %17, label %30 [
    i32 514, label %18
    i32 1281, label %23
  ]

18:                                               ; preds = %6
  %19 = load ptr, ptr %9, align 8, !tbaa !138
  %20 = call i64 @avio_rb64(ptr noundef %19)
  %21 = load ptr, ptr %14, align 8, !tbaa !90
  %22 = getelementptr inbounds nuw %struct.MXFEssenceGroup, ptr %21, i32 0, i32 3
  store i64 %20, ptr %22, align 8, !tbaa !301
  br label %30

23:                                               ; preds = %6
  %24 = load ptr, ptr %9, align 8, !tbaa !138
  %25 = load ptr, ptr %14, align 8, !tbaa !90
  %26 = getelementptr inbounds nuw %struct.MXFEssenceGroup, ptr %25, i32 0, i32 1
  %27 = load ptr, ptr %14, align 8, !tbaa !90
  %28 = getelementptr inbounds nuw %struct.MXFEssenceGroup, ptr %27, i32 0, i32 2
  %29 = call i32 @mxf_read_strong_ref_array(ptr noundef %24, ptr noundef %26, ptr noundef %28)
  store i32 %29, ptr %7, align 4
  store i32 1, ptr %15, align 4
  br label %31

30:                                               ; preds = %6, %18
  store i32 0, ptr %7, align 4
  store i32 1, ptr %15, align 4
  br label %31

31:                                               ; preds = %30, %23
  call void @llvm.lifetime.end.p0(i64 8, ptr %14) #13
  %32 = load i32, ptr %7, align 4
  ret i32 %32
}