; Function Attrs: nounwind uwtable
define internal i32 @mxf_read_essence_group(ptr noundef captures(none) %0, ptr noundef %1, i32 noundef %2, i32 %3, ptr readnone captures(none) %4, i64 %5) #1 {
  switch i32 %2, label %14 [
    i32 514, label %7
    i32 1281, label %10
  ]

7:                                                ; preds = %6
  %8 = tail call i64 @avio_rb64(ptr noundef %1) #15
  %9 = getelementptr inbounds nuw i8, ptr %0, i64 40
  store i64 %8, ptr %9, align 8, !tbaa !335
  br label %14

10:                                               ; preds = %6
  %11 = getelementptr inbounds nuw i8, ptr %0, i64 24
  %12 = getelementptr inbounds nuw i8, ptr %0, i64 32
  %13 = tail call fastcc i32 @mxf_read_strong_ref_array(ptr noundef %1, ptr noundef nonnull %11, ptr noundef nonnull %12)
  br label %14

14:                                               ; preds = %6, %7, %10
  %.0 = phi i32 [ %13, %10 ], [ 0, %7 ], [ 0, %6 ]
  ret i32 %.0
}